; ModuleID = '49/1297.c'
source_filename = "49/1297.c"
target datalayout = "e-m:e-p270:32:32-p271:32:32-p272:64:64-i64:64-f80:128-n8:16:32:64-S128"
target triple = "x86_64-pc-linux-gnu"

@.str = private unnamed_addr constant [3 x i8] c"%s\00", align 1
@.str.1 = private unnamed_addr constant [4 x i8] c"%s\0A\00", align 1

; Function Attrs: noinline nounwind uwtable
define dso_local i32 @main() #0 {
  %1 = alloca i32, align 4
  %2 = alloca [501 x i8], align 16
  %3 = alloca [501 x i8], align 16
  %4 = alloca i32, align 4
  %5 = alloca i32, align 4
  %6 = alloca i32, align 4
  %7 = alloca i32, align 4
  %8 = alloca i32, align 4
  %9 = alloca i32, align 4
  %10 = alloca i32, align 4
  %11 = alloca i32, align 4
  store i32 0, i32* %1, align 4
  store i32 0, i32* %9, align 4
  store i32 0, i32* %11, align 4
  %12 = getelementptr inbounds [501 x i8], [501 x i8]* %2, i64 0, i64 0
  %13 = call i32 (i8*, ...) @__isoc99_scanf(i8* getelementptr inbounds ([3 x i8], [3 x i8]* @.str, i64 0, i64 0), i8* %12)
  %14 = getelementptr inbounds [501 x i8], [501 x i8]* %2, i64 0, i64 0
  %15 = call i64 @strlen(i8* %14) #3
  %16 = trunc i64 %15 to i32
  store i32 %16, i32* %6, align 4
  store i32 1, i32* %4, align 4
  br label %17

17:                                               ; preds = %92, %0
  %18 = load i32, i32* %4, align 4
  %19 = load i32, i32* %6, align 4
  %20 = icmp sle i32 %18, %19
  br i1 %20, label %21, label %95

21:                                               ; preds = %17
  store i32 0, i32* %5, align 4
  br label %22

22:                                               ; preds = %88, %21
  %23 = load i32, i32* %5, align 4
  %24 = load i32, i32* %6, align 4
  %25 = load i32, i32* %4, align 4
  %26 = sub nsw i32 %24, %25
  %27 = icmp slt i32 %23, %26
  br i1 %27, label %28, label %91

28:                                               ; preds = %22
  %29 = load i32, i32* %5, align 4
  %30 = load i32, i32* %4, align 4
  %31 = add nsw i32 %29, %30
  store i32 %31, i32* %8, align 4
  %32 = load i32, i32* %5, align 4
  store i32 %32, i32* %7, align 4
  br label %33

33:                                               ; preds = %55, %28
  %34 = load i32, i32* %7, align 4
  %35 = load i32, i32* %8, align 4
  %36 = icmp slt i32 %34, %35
  br i1 %36, label %37, label %56

37:                                               ; preds = %33
  %38 = load i32, i32* %7, align 4
  %39 = sext i32 %38 to i64
  %40 = getelementptr inbounds [501 x i8], [501 x i8]* %2, i64 0, i64 %39
  %41 = load i8, i8* %40, align 1
  %42 = sext i8 %41 to i32
  %43 = load i32, i32* %8, align 4
  %44 = sext i32 %43 to i64
  %45 = getelementptr inbounds [501 x i8], [501 x i8]* %2, i64 0, i64 %44
  %46 = load i8, i8* %45, align 1
  %47 = sext i8 %46 to i32
  %48 = icmp eq i32 %42, %47
  br i1 %48, label %49, label %54

49:                                               ; preds = %37
  %50 = load i32, i32* %7, align 4
  %51 = add nsw i32 %50, 1
  store i32 %51, i32* %7, align 4
  %52 = load i32, i32* %8, align 4
  %53 = add nsw i32 %52, -1
  store i32 %53, i32* %8, align 4
  br label %55

54:                                               ; preds = %37
  store i32 1, i32* %9, align 4
  br label %56

55:                                               ; preds = %49
  br label %33

56:                                               ; preds = %54, %33
  %57 = load i32, i32* %9, align 4
  %58 = icmp eq i32 %57, 0
  br i1 %58, label %59, label %87

59:                                               ; preds = %56
  %60 = load i32, i32* %5, align 4
  store i32 %60, i32* %10, align 4
  br label %61

61:                                               ; preds = %81, %59
  %62 = load i32, i32* %10, align 4
  %63 = load i32, i32* %5, align 4
  %64 = load i32, i32* %4, align 4
  %65 = add nsw i32 %63, %64
  %66 = icmp sle i32 %62, %65
  br i1 %66, label %67, label %84

67:                                               ; preds = %61
  %68 = load i32, i32* %10, align 4
  %69 = sext i32 %68 to i64
  %70 = getelementptr inbounds [501 x i8], [501 x i8]* %2, i64 0, i64 %69
  %71 = load i8, i8* %70, align 1
  %72 = load i32, i32* %11, align 4
  %73 = sext i32 %72 to i64
  %74 = getelementptr inbounds [501 x i8], [501 x i8]* %3, i64 0, i64 %73
  store i8 %71, i8* %74, align 1
  %75 = load i32, i32* %11, align 4
  %76 = add nsw i32 %75, 1
  %77 = sext i32 %76 to i64
  %78 = getelementptr inbounds [501 x i8], [501 x i8]* %3, i64 0, i64 %77
  store i8 0, i8* %78, align 1
  %79 = load i32, i32* %11, align 4
  %80 = add nsw i32 %79, 1
  store i32 %80, i32* %11, align 4
  br label %81

81:                                               ; preds = %67
  %82 = load i32, i32* %10, align 4
  %83 = add nsw i32 %82, 1
  store i32 %83, i32* %10, align 4
  br label %61

84:                                               ; preds = %61
  %85 = getelementptr inbounds [501 x i8], [501 x i8]* %3, i64 0, i64 0
  %86 = call i32 (i8*, ...) @printf(i8* getelementptr inbounds ([4 x i8], [4 x i8]* @.str.1, i64 0, i64 0), i8* %85)
  store i32 0, i32* %11, align 4
  br label %87

87:                                               ; preds = %84, %56
  store i32 0, i32* %9, align 4
  br label %88

88:                                               ; preds = %87
  %89 = load i32, i32* %5, align 4
  %90 = add nsw i32 %89, 1
  store i32 %90, i32* %5, align 4
  br label %22

91:                                               ; preds = %22
  br label %92

92:                                               ; preds = %91
  %93 = load i32, i32* %4, align 4
  %94 = add nsw i32 %93, 1
  store i32 %94, i32* %4, align 4
  br label %17

95:                                               ; preds = %17
  ret i32 0
}

declare dso_local i32 @__isoc99_scanf(i8*, ...) #1

; Function Attrs: nounwind readonly
declare dso_local i64 @strlen(i8*) #2

declare dso_local i32 @printf(i8*, ...) #1


!llvm.module.flags = !{!0}
!llvm.ident = !{!1}

!0 = !{i32 1, !"wchar_size", i32 4}
!1 = !{!"clang version 10.0.0-4ubuntu1 "}
